target datalayout = "e-m:e-p270:32:32-p271:32:32-p272:64:64-i64:64-i128:128-f80:128-n8:16:32:64-S128"
target triple = "x86_64-pc-linux-gnu"

; Function Attrs: nounwind uwtable
define internal void @ps_mul_pair_single_c(ptr noalias noundef %0, ptr noundef %1, ptr noundef %2, i32 noundef %3) #1 {
  %5 = alloca ptr, align 8
  %6 = alloca ptr, align 8
  %7 = alloca ptr, align 8
  %8 = alloca i32, align 4
  %9 = alloca i32, align 4
  store ptr %0, ptr %5, align 8, !tbaa !17
  store ptr %1, ptr %6, align 8, !tbaa !17
  store ptr %2, ptr %7, align 8, !tbaa !17
  store i32 %3, ptr %8, align 4, !tbaa !19
  call void @llvm.lifetime.start.p0(i64 4, ptr %9) #3
  store i32 0, ptr %9, align 4, !tbaa !19
  br label %10

10:                                               ; preds = %60, %4
  %11 = load i32, ptr %9, align 4, !tbaa !19
  %12 = load i32, ptr %8, align 4, !tbaa !19
  %13 = icmp slt i32 %11, %12
  br i1 %13, label %15, label %14

14:                                               ; preds = %10
  call void @llvm.lifetime.end.p0(i64 4, ptr %9) #3
  br label %63

15:                                               ; preds = %10
  %16 = load ptr, ptr %6, align 8, !tbaa !17
  %17 = load i32, ptr %9, align 4, !tbaa !19
  %18 = sext i32 %17 to i64
  %19 = getelementptr inbounds [2 x i32], ptr %16, i64 %18
  %20 = getelementptr inbounds [2 x i32], ptr %19, i64 0, i64 0
  %21 = load i32, ptr %20, align 4, !tbaa !19
  %22 = sext i32 %21 to i64
  %23 = load ptr, ptr %7, align 8, !tbaa !17
  %24 = load i32, ptr %9, align 4, !tbaa !19
  %25 = sext i32 %24 to i64
  %26 = getelementptr inbounds i32, ptr %23, i64 %25
  %27 = load i32, ptr %26, align 4, !tbaa !19
  %28 = sext i32 %27 to i64
  %29 = mul nsw i64 %22, %28
  %30 = add nsw i64 %29, 32768
  %31 = ashr i64 %30, 16
  %32 = trunc i64 %31 to i32
  %33 = load ptr, ptr %5, align 8, !tbaa !17
  %34 = load i32, ptr %9, align 4, !tbaa !19
  %35 = sext i32 %34 to i64
  %36 = getelementptr inbounds [2 x i32], ptr %33, i64 %35
  %37 = getelementptr inbounds [2 x i32], ptr %36, i64 0, i64 0
  store i32 %32, ptr %37, align 4, !tbaa !19
  %38 = load ptr, ptr %6, align 8, !tbaa !17
  %39 = load i32, ptr %9, align 4, !tbaa !19
  %40 = sext i32 %39 to i64
  %41 = getelementptr inbounds [2 x i32], ptr %38, i64 %40
  %42 = getelementptr inbounds [2 x i32], ptr %41, i64 0, i64 1
  %43 = load i32, ptr %42, align 4, !tbaa !19
  %44 = sext i32 %43 to i64
  %45 = load ptr, ptr %7, align 8, !tbaa !17
  %46 = load i32, ptr %9, align 4, !tbaa !19
  %47 = sext i32 %46 to i64
  %48 = getelementptr inbounds i32, ptr %45, i64 %47
  %49 = load i32, ptr %48, align 4, !tbaa !19
  %50 = sext i32 %49 to i64
  %51 = mul nsw i64 %44, %50
  %52 = add nsw i64 %51, 32768
  %53 = ashr i64 %52, 16
  %54 = trunc i64 %53 to i32
  %55 = load ptr, ptr %5, align 8, !tbaa !17
  %56 = load i32, ptr %9, align 4, !tbaa !19
  %57 = sext i32 %56 to i64
  %58 = getelementptr inbounds [2 x i32], ptr %55, i64 %57
  %59 = getelementptr inbounds [2 x i32], ptr %58, i64 0, i64 1
  store i32 %54, ptr %59, align 4, !tbaa !19
  br label %60

60:                                               ; preds = %15
  %61 = load i32, ptr %9, align 4, !tbaa !19
  %62 = add nsw i32 %61, 1
  store i32 %62, ptr %9, align 4, !tbaa !19
  br label %10, !llvm.loop !23

63:                                               ; preds = %14
  ret void
}