; Function Attrs: nofree norecurse nosync nounwind memory(argmem: readwrite) uwtable
define internal void @ps_mul_pair_single_c(ptr noalias noundef writeonly captures(none) %0, ptr noundef readonly captures(none) %1, ptr noundef readonly captures(none) %2, i32 noundef %3) #1 {
  %5 = icmp sgt i32 %3, 0
  br i1 %5, label %.lr.ph.preheader, label %._crit_edge

.lr.ph.preheader:                                 ; preds = %4
  %wide.trip.count = zext nneg i32 %3 to i64
  br label %.lr.ph

._crit_edge:                                      ; preds = %.lr.ph, %4
  ret void

.lr.ph:                                           ; preds = %.lr.ph.preheader, %.lr.ph
  %indvars.iv = phi i64 [ 0, %.lr.ph.preheader ], [ %indvars.iv.next, %.lr.ph ]
  %6 = getelementptr inbounds nuw [2 x i32], ptr %1, i64 %indvars.iv
  %7 = load i32, ptr %6, align 4, !tbaa !15
  %8 = sext i32 %7 to i64
  %9 = getelementptr inbounds nuw i32, ptr %2, i64 %indvars.iv
  %10 = load i32, ptr %9, align 4, !tbaa !15
  %11 = sext i32 %10 to i64
  %12 = mul nsw i64 %11, %8
  %13 = add nsw i64 %12, 32768
  %14 = lshr i64 %13, 16
  %15 = trunc i64 %14 to i32
  %16 = getelementptr inbounds nuw [2 x i32], ptr %0, i64 %indvars.iv
  store i32 %15, ptr %16, align 4, !tbaa !15
  %17 = getelementptr inbounds nuw i8, ptr %6, i64 4
  %18 = load i32, ptr %17, align 4, !tbaa !15
  %19 = sext i32 %18 to i64
  %20 = mul nsw i64 %19, %11
  %21 = add nsw i64 %20, 32768
  %22 = lshr i64 %21, 16
  %23 = trunc i64 %22 to i32
  %24 = getelementptr inbounds nuw i8, ptr %16, i64 4
  store i32 %23, ptr %24, align 4, !tbaa !15
  %indvars.iv.next = add nuw nsw i64 %indvars.iv, 1
  %exitcond.not = icmp eq i64 %indvars.iv.next, %wide.trip.count
  br i1 %exitcond.not, label %._crit_edge, label %.lr.ph, !llvm.loop !19
}